target datalayout = "e-m:e-p270:32:32-p271:32:32-p272:64:64-i64:64-i128:128-f80:128-n8:16:32:64-S128"
target triple = "x86_64-pc-linux-gnu"

%struct.hwloc_topology = type { i32, i32, i32, ptr, ptr, i64, [20 x i32], [20 x i32], i64, i64, i32, ptr, i64, ptr, i64, [6 x %struct.hwloc_special_level_s], ptr, ptr, %struct.hwloc_binding_hooks, %struct.hwloc_topology_support, %struct.hwloc_infos_s, ptr, ptr, i32, ptr, ptr, i32, i32, ptr, i32, i32, ptr, i32, i32, i32, [5 x float], i32, ptr, ptr, i32, i32, ptr, i32, %struct.hwloc_numanode_attr_s, i32, i32, ptr, i64, i32, ptr, ptr, ptr }
%struct.hwloc_special_level_s = type { i32, ptr, ptr, ptr }
%struct.hwloc_binding_hooks = type { ptr, ptr, ptr, ptr, ptr, ptr, ptr, ptr, ptr, ptr, ptr, ptr, ptr, ptr, ptr, ptr, ptr, ptr, ptr, ptr, ptr, ptr, ptr, ptr }
%struct.hwloc_topology_support = type { ptr, ptr, ptr, ptr }
%struct.hwloc_infos_s = type { ptr, i32, i32 }
%struct.hwloc_numanode_attr_s = type { i64, i32, ptr }
%struct.hwloc_obj = type { i32, ptr, i32, ptr, i64, ptr, i32, i32, ptr, ptr, ptr, i32, ptr, ptr, i32, ptr, ptr, ptr, i32, i32, ptr, i32, ptr, i32, ptr, ptr, ptr, ptr, ptr, %struct.hwloc_infos_s, ptr, i64 }

; Function Attrs: inlinehint nounwind uwtable
define internal i32 @hwloc__obj_type_is_memory(i32 noundef %0) #3 {
  %2 = alloca i32, align 4
  store i32 %0, ptr %2, align 4, !tbaa !8
  %3 = load i32, ptr %2, align 4, !tbaa !8
  %4 = icmp uge i32 %3, 14
  br i1 %4, label %5, label %8

5:                                                ; preds = %1
  %6 = load i32, ptr %2, align 4, !tbaa !8
  %7 = icmp ule i32 %6, 15
  br label %8

8:                                                ; preds = %5, %1
  %9 = phi i1 [ false, %1 ], [ %7, %5 ]
  %10 = zext i1 %9 to i32
  ret i32 %10
}

; Function Attrs: nounwind willreturn memory(read) uwtable
define ptr @hwloc_get_obj_by_depth(ptr noundef %0, i32 noundef %1, i32 noundef %2) #1 {
  %4 = alloca ptr, align 8
  %5 = alloca ptr, align 8
  %6 = alloca i32, align 4
  %7 = alloca i32, align 4
  %8 = alloca i32, align 4
  %9 = alloca i32, align 4
  store ptr %0, ptr %5, align 8, !tbaa !3
  store i32 %1, ptr %6, align 4, !tbaa !8
  store i32 %2, ptr %7, align 4, !tbaa !8
  %10 = load i32, ptr %6, align 4, !tbaa !8
  %11 = load ptr, ptr %5, align 8, !tbaa !3
  %12 = getelementptr inbounds nuw %struct.hwloc_topology, ptr %11, i32 0, i32 1
  %13 = load i32, ptr %12, align 4, !tbaa !10
  %14 = icmp uge i32 %10, %13
  br i1 %14, label %15, label %47

15:                                               ; preds = %3
  call void @llvm.lifetime.start.p0(i64 4, ptr %8) #10
  %16 = load i32, ptr %6, align 4, !tbaa !8
  %17 = sub nsw i32 -3, %16
  store i32 %17, ptr %8, align 4, !tbaa !8
  %18 = load i32, ptr %8, align 4, !tbaa !8
  %19 = icmp ult i32 %18, 6
  br i1 %19, label %20, label %45

20:                                               ; preds = %15
  %21 = load i32, ptr %7, align 4, !tbaa !8
  %22 = load ptr, ptr %5, align 8, !tbaa !3
  %23 = getelementptr inbounds nuw %struct.hwloc_topology, ptr %22, i32 0, i32 15
  %24 = load i32, ptr %8, align 4, !tbaa !8
  %25 = zext i32 %24 to i64
  %26 = getelementptr inbounds nuw [6 x %struct.hwloc_special_level_s], ptr %23, i64 0, i64 %25
  %27 = getelementptr inbounds nuw %struct.hwloc_special_level_s, ptr %26, i32 0, i32 0
  %28 = load i32, ptr %27, align 8, !tbaa !49
  %29 = icmp ult i32 %21, %28
  br i1 %29, label %30, label %42

30:                                               ; preds = %20
  %31 = load ptr, ptr %5, align 8, !tbaa !3
  %32 = getelementptr inbounds nuw %struct.hwloc_topology, ptr %31, i32 0, i32 15
  %33 = load i32, ptr %8, align 4, !tbaa !8
  %34 = zext i32 %33 to i64
  %35 = getelementptr inbounds nuw [6 x %struct.hwloc_special_level_s], ptr %32, i64 0, i64 %34
  %36 = getelementptr inbounds nuw %struct.hwloc_special_level_s, ptr %35, i32 0, i32 1
  %37 = load ptr, ptr %36, align 8, !tbaa !51
  %38 = load i32, ptr %7, align 4, !tbaa !8
  %39 = zext i32 %38 to i64
  %40 = getelementptr inbounds nuw ptr, ptr %37, i64 %39
  %41 = load ptr, ptr %40, align 8, !tbaa !37
  br label %43

42:                                               ; preds = %20
  br label %43

43:                                               ; preds = %42, %30
  %44 = phi ptr [ %41, %30 ], [ null, %42 ]
  store ptr %44, ptr %4, align 8
  store i32 1, ptr %9, align 4
  br label %46

45:                                               ; preds = %15
  store ptr null, ptr %4, align 8
  store i32 1, ptr %9, align 4
  br label %46

46:                                               ; preds = %45, %43
  call void @llvm.lifetime.end.p0(i64 4, ptr %8) #10
  br label %70

47:                                               ; preds = %3
  %48 = load i32, ptr %7, align 4, !tbaa !8
  %49 = load ptr, ptr %5, align 8, !tbaa !3
  %50 = getelementptr inbounds nuw %struct.hwloc_topology, ptr %49, i32 0, i32 3
  %51 = load ptr, ptr %50, align 8, !tbaa !52
  %52 = load i32, ptr %6, align 4, !tbaa !8
  %53 = sext i32 %52 to i64
  %54 = getelementptr inbounds i32, ptr %51, i64 %53
  %55 = load i32, ptr %54, align 4, !tbaa !8
  %56 = icmp uge i32 %48, %55
  br i1 %56, label %57, label %58

57:                                               ; preds = %47
  store ptr null, ptr %4, align 8
  br label %70

58:                                               ; preds = %47
  %59 = load ptr, ptr %5, align 8, !tbaa !3
  %60 = getelementptr inbounds nuw %struct.hwloc_topology, ptr %59, i32 0, i32 4
  %61 = load ptr, ptr %60, align 8, !tbaa !34
  %62 = load i32, ptr %6, align 4, !tbaa !8
  %63 = sext i32 %62 to i64
  %64 = getelementptr inbounds ptr, ptr %61, i64 %63
  %65 = load ptr, ptr %64, align 8, !tbaa !35
  %66 = load i32, ptr %7, align 4, !tbaa !8
  %67 = zext i32 %66 to i64
  %68 = getelementptr inbounds nuw ptr, ptr %65, i64 %67
  %69 = load ptr, ptr %68, align 8, !tbaa !37
  store ptr %69, ptr %4, align 8
  br label %70

70:                                               ; preds = %58, %57, %46
  %71 = load ptr, ptr %4, align 8
  ret ptr %71
}

; Function Attrs: nounwind uwtable
define i32 @hwloc_get_memory_parents_depth(ptr noundef %0) #0 {
  %2 = alloca i32, align 4
  %3 = alloca ptr, align 8
  %4 = alloca i32, align 4
  %5 = alloca ptr, align 8
  %6 = alloca ptr, align 8
  %7 = alloca i32, align 4
  store ptr %0, ptr %3, align 8, !tbaa !3
  call void @llvm.lifetime.start.p0(i64 4, ptr %4) #10
  store i32 -1, ptr %4, align 4, !tbaa !8
  call void @llvm.lifetime.start.p0(i64 8, ptr %5) #10
  %8 = load ptr, ptr %3, align 8, !tbaa !3
  %9 = call ptr @hwloc_get_obj_by_depth(ptr noundef %8, i32 noundef -3, i32 noundef 0) #11
  store ptr %9, ptr %5, align 8, !tbaa !37
  br label %10

10:                                               ; preds = %48, %1
  %11 = load ptr, ptr %5, align 8, !tbaa !37
  %12 = icmp ne ptr %11, null
  br i1 %12, label %13, label %49

13:                                               ; preds = %10
  call void @llvm.lifetime.start.p0(i64 8, ptr %6) #10
  %14 = load ptr, ptr %5, align 8, !tbaa !37
  %15 = getelementptr inbounds nuw %struct.hwloc_obj, ptr %14, i32 0, i32 10
  %16 = load ptr, ptr %15, align 8, !tbaa !43
  store ptr %16, ptr %6, align 8, !tbaa !37
  br label %17

17:                                               ; preds = %23, %13
  %18 = load ptr, ptr %6, align 8, !tbaa !37
  %19 = getelementptr inbounds nuw %struct.hwloc_obj, ptr %18, i32 0, i32 0
  %20 = load i32, ptr %19, align 8, !tbaa !39
  %21 = call i32 @hwloc__obj_type_is_memory(i32 noundef %20)
  %22 = icmp ne i32 %21, 0
  br i1 %22, label %23, label %27

23:                                               ; preds = %17
  %24 = load ptr, ptr %6, align 8, !tbaa !37
  %25 = getelementptr inbounds nuw %struct.hwloc_obj, ptr %24, i32 0, i32 10
  %26 = load ptr, ptr %25, align 8, !tbaa !43
  store ptr %26, ptr %6, align 8, !tbaa !37
  br label %17, !llvm.loop !44

27:                                               ; preds = %17
  %28 = load i32, ptr %4, align 4, !tbaa !8
  %29 = icmp eq i32 %28, -1
  br i1 %29, label %30, label %34

30:                                               ; preds = %27
  %31 = load ptr, ptr %6, align 8, !tbaa !37
  %32 = getelementptr inbounds nuw %struct.hwloc_obj, ptr %31, i32 0, i32 6
  %33 = load i32, ptr %32, align 8, !tbaa !46
  store i32 %33, ptr %4, align 4, !tbaa !8
  br label %42

34:                                               ; preds = %27
  %35 = load i32, ptr %4, align 4, !tbaa !8
  %36 = load ptr, ptr %6, align 8, !tbaa !37
  %37 = getelementptr inbounds nuw %struct.hwloc_obj, ptr %36, i32 0, i32 6
  %38 = load i32, ptr %37, align 8, !tbaa !46
  %39 = icmp ne i32 %35, %38
  br i1 %39, label %40, label %41

40:                                               ; preds = %34
  store i32 -2, ptr %2, align 4
  store i32 1, ptr %7, align 4
  br label %46

41:                                               ; preds = %34
  br label %42

42:                                               ; preds = %41, %30
  %43 = load ptr, ptr %5, align 8, !tbaa !37
  %44 = getelementptr inbounds nuw %struct.hwloc_obj, ptr %43, i32 0, i32 8
  %45 = load ptr, ptr %44, align 8, !tbaa !47
  store ptr %45, ptr %5, align 8, !tbaa !37
  store i32 0, ptr %7, align 4
  br label %46

46:                                               ; preds = %42, %40
  call void @llvm.lifetime.end.p0(i64 8, ptr %6) #10
  %47 = load i32, ptr %7, align 4
  switch i32 %47, label %51 [
    i32 0, label %48
  ]

48:                                               ; preds = %46
  br label %10, !llvm.loop !48

49:                                               ; preds = %10
  %50 = load i32, ptr %4, align 4, !tbaa !8
  store i32 %50, ptr %2, align 4
  store i32 1, ptr %7, align 4
  br label %51

51:                                               ; preds = %49, %46
  call void @llvm.lifetime.end.p0(i64 8, ptr %5) #10
  call void @llvm.lifetime.end.p0(i64 4, ptr %4) #10
  %52 = load i32, ptr %2, align 4
  ret i32 %52
}